target datalayout = "e-m:e-p270:32:32-p271:32:32-p272:64:64-i64:64-i128:128-f80:128-n8:16:32:64-S128"
target triple = "x86_64-pc-linux-gnu"

; Function Attrs: mustprogress nounwind uwtable
define hidden noundef ptr @_ZN2os16format_boot_pathEPKcS1_icc(ptr noundef %0, ptr noundef %1, i32 noundef %2, i8 noundef signext %3, i8 noundef signext %4) #1 align 2 {
  %6 = alloca ptr, align 8
  %7 = alloca ptr, align 8
  %8 = alloca i32, align 4
  %9 = alloca i8, align 1
  %10 = alloca i8, align 1
  %11 = alloca i32, align 4
  %12 = alloca ptr, align 8
  %13 = alloca ptr, align 8
  %14 = alloca ptr, align 8
  store ptr %0, ptr %6, align 8
  store ptr %1, ptr %7, align 8
  store i32 %2, ptr %8, align 4
  store i8 %3, ptr %9, align 1
  store i8 %4, ptr %10, align 1
  store i32 0, ptr %11, align 4
  %15 = load ptr, ptr %6, align 8
  store ptr %15, ptr %12, align 8
  br label %16

16:                                               ; preds = %34, %5
  %17 = load ptr, ptr %12, align 8
  %18 = load i8, ptr %17, align 1
  %19 = sext i8 %18 to i32
  %20 = icmp ne i32 %19, 0
  br i1 %20, label %21, label %37

21:                                               ; preds = %16
  %22 = load ptr, ptr %12, align 8
  %23 = load i8, ptr %22, align 1
  %24 = sext i8 %23 to i32
  %25 = icmp eq i32 %24, 37
  br i1 %25, label %26, label %31

26:                                               ; preds = %21
  %27 = load i32, ptr %8, align 4
  %28 = sub nsw i32 %27, 1
  %29 = load i32, ptr %11, align 4
  %30 = add nsw i32 %29, %28
  store i32 %30, ptr %11, align 4
  br label %31

31:                                               ; preds = %26, %21
  %32 = load i32, ptr %11, align 4
  %33 = add nsw i32 %32, 1
  store i32 %33, ptr %11, align 4
  br label %34

34:                                               ; preds = %31
  %35 = load ptr, ptr %12, align 8
  %36 = getelementptr inbounds i8, ptr %35, i32 1
  store ptr %36, ptr %12, align 8
  br label %16, !llvm.loop !21

37:                                               ; preds = %16
  %38 = load i32, ptr %11, align 4
  %39 = add nsw i32 %38, 1
  %40 = sext i32 %39 to i64
  %41 = mul i64 %40, 1
  %42 = call noundef ptr @_Z12AllocateHeapm8MEMFLAGSN17AllocFailStrategy13AllocFailEnumE(i64 noundef %41, i8 noundef zeroext 9, i32 noundef 0)
  store ptr %42, ptr %13, align 8
  %43 = load ptr, ptr %13, align 8
  store ptr %43, ptr %14, align 8
  %44 = load ptr, ptr %6, align 8
  store ptr %44, ptr %12, align 8
  br label %45

45:                                               ; preds = %76, %37
  %46 = load ptr, ptr %12, align 8
  %47 = load i8, ptr %46, align 1
  %48 = sext i8 %47 to i32
  %49 = icmp ne i32 %48, 0
  br i1 %49, label %50, label %79

50:                                               ; preds = %45
  %51 = load ptr, ptr %12, align 8
  %52 = load i8, ptr %51, align 1
  %53 = sext i8 %52 to i32
  switch i32 %53, label %70 [
    i32 37, label %54
    i32 47, label %62
    i32 58, label %66
  ]

54:                                               ; preds = %50
  %55 = load ptr, ptr %14, align 8
  %56 = load ptr, ptr %7, align 8
  %57 = call ptr @strcpy(ptr noundef %55, ptr noundef %56) #13
  %58 = load i32, ptr %8, align 4
  %59 = load ptr, ptr %14, align 8
  %60 = sext i32 %58 to i64
  %61 = getelementptr inbounds i8, ptr %59, i64 %60
  store ptr %61, ptr %14, align 8
  br label %75

62:                                               ; preds = %50
  %63 = load i8, ptr %9, align 1
  %64 = load ptr, ptr %14, align 8
  %65 = getelementptr inbounds i8, ptr %64, i32 1
  store ptr %65, ptr %14, align 8
  store i8 %63, ptr %64, align 1
  br label %75

66:                                               ; preds = %50
  %67 = load i8, ptr %10, align 1
  %68 = load ptr, ptr %14, align 8
  %69 = getelementptr inbounds i8, ptr %68, i32 1
  store ptr %69, ptr %14, align 8
  store i8 %67, ptr %68, align 1
  br label %75

70:                                               ; preds = %50
  %71 = load ptr, ptr %12, align 8
  %72 = load i8, ptr %71, align 1
  %73 = load ptr, ptr %14, align 8
  %74 = getelementptr inbounds i8, ptr %73, i32 1
  store ptr %74, ptr %14, align 8
  store i8 %72, ptr %73, align 1
  br label %75

75:                                               ; preds = %70, %66, %62, %54
  br label %76

76:                                               ; preds = %75
  %77 = load ptr, ptr %12, align 8
  %78 = getelementptr inbounds i8, ptr %77, i32 1
  store ptr %78, ptr %12, align 8
  br label %45, !llvm.loop !22

79:                                               ; preds = %45
  %80 = load ptr, ptr %14, align 8
  store i8 0, ptr %80, align 1
  %81 = load ptr, ptr %13, align 8
  ret ptr %81
}