; Function Attrs: mustprogress nounwind uwtable
define hidden noundef ptr @_ZN2os16format_boot_pathEPKcS1_icc(ptr nocapture noundef readonly %0, ptr nocapture noundef readonly %1, i32 noundef %2, i8 noundef signext %3, i8 noundef signext %4) local_unnamed_addr #3 align 2 {
  %6 = add nsw i32 %2, -1
  br label %7

7:                                                ; preds = %11, %5
  %.026 = phi ptr [ %0, %5 ], [ %13, %11 ]
  %.024 = phi i32 [ 0, %5 ], [ %12, %11 ]
  %8 = load i8, ptr %.026, align 1
  switch i8 %8, label %11 [
    i8 0, label %14
    i8 37, label %9
  ]

9:                                                ; preds = %7
  %10 = add nsw i32 %6, %.024
  br label %11

11:                                               ; preds = %7, %9
  %.125 = phi i32 [ %10, %9 ], [ %.024, %7 ]
  %12 = add nsw i32 %.125, 1
  %13 = getelementptr inbounds i8, ptr %.026, i64 1
  br label %7, !llvm.loop !24

14:                                               ; preds = %7
  %15 = add nsw i32 %.024, 1
  %16 = sext i32 %15 to i64
  %17 = tail call noundef ptr @_Z12AllocateHeapm8MEMFLAGSN17AllocFailStrategy13AllocFailEnumE(i64 noundef %16, i8 noundef zeroext 9, i32 noundef 0) #28
  %18 = sext i32 %2 to i64
  br label %19

19:                                               ; preds = %30, %14
  %.127 = phi ptr [ %0, %14 ], [ %31, %30 ]
  %.0 = phi ptr [ %17, %14 ], [ %.1, %30 ]
  %20 = load i8, ptr %.127, align 1
  switch i8 %20, label %28 [
    i8 0, label %32
    i8 37, label %21
    i8 47, label %24
    i8 58, label %26
  ]

21:                                               ; preds = %19
  %22 = tail call ptr @strcpy(ptr noundef nonnull dereferenceable(1) %.0, ptr noundef nonnull dereferenceable(1) %1) #28
  %23 = getelementptr inbounds i8, ptr %.0, i64 %18
  br label %30

24:                                               ; preds = %19
  %25 = getelementptr inbounds i8, ptr %.0, i64 1
  store i8 %3, ptr %.0, align 1
  br label %30

26:                                               ; preds = %19
  %27 = getelementptr inbounds i8, ptr %.0, i64 1
  store i8 %4, ptr %.0, align 1
  br label %30

28:                                               ; preds = %19
  %29 = getelementptr inbounds i8, ptr %.0, i64 1
  store i8 %20, ptr %.0, align 1
  br label %30

30:                                               ; preds = %21, %24, %26, %28
  %.1 = phi ptr [ %29, %28 ], [ %27, %26 ], [ %25, %24 ], [ %23, %21 ]
  %31 = getelementptr inbounds i8, ptr %.127, i64 1
  br label %19, !llvm.loop !25

32:                                               ; preds = %19
  store i8 0, ptr %.0, align 1
  ret ptr %17
}